; Function Attrs: mustprogress uwtable
define noundef signext i8 @_ZNK6icu_7519CharsetRecog_8859_25matchEPNS_9InputTextEPNS_12CharsetMatchE(ptr noundef nonnull align 8 dereferenceable(8) %this, ptr noundef %textIn, ptr noundef %results) unnamed_addr #6 align 2 {
entry:
  %fC1Bytes = getelementptr inbounds i8, ptr %textIn, i64 24
  %0 = load i8, ptr %fC1Bytes, align 8
  %tobool.not = icmp eq i8 %0, 0
  %cond = select i1 %tobool.not, ptr @.str.3, ptr @.str.2
  br label %for.body

for.body:                                         ; preds = %entry, %for.inc
  %indvars.iv = phi i64 [ 0, %entry ], [ %indvars.iv.next, %for.inc ]
  %bestConfidenceSoFar.09 = phi i32 [ -1, %entry ], [ %bestConfidenceSoFar.1, %for.inc ]
  %arrayidx = getelementptr inbounds [4 x %"struct.icu_75::NGramsPlusLang"], ptr @_ZN6icu_75L13ngrams_8859_2E, i64 0, i64 %indvars.iv
  %lang5 = getelementptr inbounds i8, ptr %arrayidx, i64 256
  %1 = load ptr, ptr %lang5, align 8
  %vtable = load ptr, ptr %this, align 8
  %vfn = getelementptr inbounds i8, ptr %vtable, i64 40
  %2 = load ptr, ptr %vfn, align 8
  %call = tail call noundef i32 %2(ptr noundef nonnull align 8 dereferenceable(8) %this, ptr noundef %textIn, ptr noundef nonnull %arrayidx, ptr noundef nonnull @_ZN6icu_75L14charMap_8859_2E)
  %cmp6 = icmp sgt i32 %call, %bestConfidenceSoFar.09
  br i1 %cmp6, label %if.then, label %for.inc

if.then:                                          ; preds = %for.body
  tail call void @_ZN6icu_7512CharsetMatch3setEPNS_9InputTextEPKNS_17CharsetRecognizerEiPKcS7_(ptr noundef nonnull align 8 dereferenceable(32) %results, ptr noundef %textIn, ptr noundef nonnull %this, i32 noundef %call, ptr noundef nonnull %cond, ptr noundef %1)
  br label %for.inc

for.inc:                                          ; preds = %for.body, %if.then
  %bestConfidenceSoFar.1 = phi i32 [ %call, %if.then ], [ %bestConfidenceSoFar.09, %for.body ]
  %indvars.iv.next = add nuw nsw i64 %indvars.iv, 1
  %exitcond.not = icmp eq i64 %indvars.iv.next, 4
  br i1 %exitcond.not, label %for.end, label %for.body, !llvm.loop !8

for.end:                                          ; preds = %for.inc
  %cmp7 = icmp sgt i32 %bestConfidenceSoFar.1, 0
  %conv = zext i1 %cmp7 to i8
  ret i8 %conv
}